target datalayout = "e-m:e-p270:32:32-p271:32:32-p272:64:64-i64:64-i128:128-f80:128-n8:16:32:64-S128"
target triple = "x86_64-unknown-linux-gnu"

%class.symbol = type { ptr }
%"class.datalog::external_relation" = type { %"class.datalog::relation_base.base", %class.obj_ref, %class.obj_ref.0, %class.obj_ref.0, %class.obj_ref.0 }
%"class.datalog::relation_base.base" = type { %"class.datalog::tr_infrastructure<datalog::relation_traits>::base_ancestor.base" }
%"class.datalog::tr_infrastructure<datalog::relation_traits>::base_ancestor.base" = type <{ ptr, ptr, %"class.datalog::relation_signature", i32 }>
%"class.datalog::relation_signature" = type { %"class.datalog::tr_infrastructure<datalog::relation_traits>::signature_base" }
%"class.datalog::tr_infrastructure<datalog::relation_traits>::signature_base" = type { %class.ptr_vector }
%class.ptr_vector = type { %class.vector }
%class.vector = type { ptr }
%class.obj_ref = type { ptr, ptr }
%class.obj_ref.0 = type { ptr, ptr }
%"class.datalog::tr_infrastructure<datalog::relation_traits>::plugin_object" = type { ptr, i32, %class.symbol, ptr }
%"class.datalog::tr_infrastructure<datalog::relation_traits>::base_ancestor" = type <{ ptr, ptr, %"class.datalog::relation_signature", i32, [4 x i8] }>
%class.ast = type { i32, i24, i32, i32 }
%"class.datalog::tr_infrastructure<datalog::relation_traits>::base_fn" = type { ptr }
%"class.datalog::external_relation_plugin::filter_interpreted_fn" = type { %"class.datalog::tr_infrastructure<datalog::relation_traits>::mutator_fn", ptr, %class.obj_ref.47, %class.obj_ref.0 }
%"class.datalog::tr_infrastructure<datalog::relation_traits>::mutator_fn" = type { %"class.datalog::tr_infrastructure<datalog::relation_traits>::base_fn" }
%class.obj_ref.47 = type { ptr, ptr }

@_ZTIN7datalog13relation_baseE = external constant ptr
@_ZTIN7datalog17external_relationE = hidden constant { ptr, ptr, ptr } { ptr getelementptr inbounds (ptr, ptr @_ZTVN10__cxxabiv120__si_class_type_infoE, i64 2), ptr @_ZTSN7datalog17external_relationE, ptr @_ZTIN7datalog13relation_baseE }, align 8

; Function Attrs: mustprogress nounwind uwtable
define linkonce_odr hidden void @_ZN3ast7inc_refEv(ptr noundef nonnull align 4 dereferenceable(16) %this) #5 comdat align 2 {
entry:
  %this.addr = alloca ptr, align 8
  store ptr %this, ptr %this.addr, align 8
  %this1 = load ptr, ptr %this.addr, align 8
  %m_ref_count = getelementptr inbounds %class.ast, ptr %this1, i32 0, i32 2
  %0 = load i32, ptr %m_ref_count, align 4
  %inc = add i32 %0, 1
  store i32 %inc, ptr %m_ref_count, align 4
  ret void
}

; Function Attrs: mustprogress uwtable
define linkonce_odr hidden void @_ZN11ast_manager7inc_refEP3ast(ptr noundef nonnull align 8 dereferenceable(976) %this, ptr noundef %n) #4 comdat align 2 {
entry:
  %this.addr = alloca ptr, align 8
  %n.addr = alloca ptr, align 8
  store ptr %this, ptr %this.addr, align 8
  store ptr %n, ptr %n.addr, align 8
  %0 = load ptr, ptr %n.addr, align 8
  %tobool = icmp ne ptr %0, null
  br i1 %tobool, label %if.then, label %if.end

if.then:                                          ; preds = %entry
  %1 = load ptr, ptr %n.addr, align 8
  call void @_ZN3ast7inc_refEv(ptr noundef nonnull align 4 dereferenceable(16) %1)
  br label %if.end

if.end:                                           ; preds = %if.then, %entry
  ret void
}

; Function Attrs: mustprogress nounwind uwtable
define linkonce_odr hidden void @_ZN7datalog17tr_infrastructureINS_15relation_traitsEE7base_fnD2Ev(ptr noundef nonnull align 8 dereferenceable(8) %this) unnamed_addr #5 comdat align 2 {
entry:
  %this.addr = alloca ptr, align 8
  store ptr %this, ptr %this.addr, align 8
  ret void
}

; Function Attrs: mustprogress uwtable
define linkonce_odr hidden void @_ZN7obj_refI3app11ast_managerE7inc_refEv(ptr noundef nonnull align 8 dereferenceable(16) %this) #4 comdat align 2 {
entry:
  %this.addr = alloca ptr, align 8
  store ptr %this, ptr %this.addr, align 8
  %this1 = load ptr, ptr %this.addr, align 8
  %m_obj = getelementptr inbounds %class.obj_ref.47, ptr %this1, i32 0, i32 0
  %0 = load ptr, ptr %m_obj, align 8
  %tobool = icmp ne ptr %0, null
  br i1 %tobool, label %if.then, label %if.end

if.then:                                          ; preds = %entry
  %m_manager = getelementptr inbounds %class.obj_ref.47, ptr %this1, i32 0, i32 1
  %1 = load ptr, ptr %m_manager, align 8
  %m_obj2 = getelementptr inbounds %class.obj_ref.47, ptr %this1, i32 0, i32 0
  %2 = load ptr, ptr %m_obj2, align 8
  call void @_ZN11ast_manager7inc_refEP3ast(ptr noundef nonnull align 8 dereferenceable(976) %1, ptr noundef %2)
  br label %if.end

if.end:                                           ; preds = %if.then, %entry
  ret void
}

; Function Attrs: mustprogress nounwind uwtable
define linkonce_odr hidden void @_ZN7datalog17tr_infrastructureINS_15relation_traitsEE7base_fnC2Ev(ptr noundef nonnull align 8 dereferenceable(8) %this) unnamed_addr #5 comdat align 2 {
entry:
  %this.addr = alloca ptr, align 8
  store ptr %this, ptr %this.addr, align 8
  %this1 = load ptr, ptr %this.addr, align 8
  store ptr getelementptr inbounds ({ [4 x ptr] }, ptr @_ZTVN7datalog17tr_infrastructureINS_15relation_traitsEE7base_fnE, i32 0, i32 0, i32 2), ptr %this1, align 8
  ret void
}

; Function Attrs: mustprogress nounwind uwtable
define linkonce_odr hidden void @_ZN7datalog17tr_infrastructureINS_15relation_traitsEE10mutator_fnD2Ev(ptr noundef nonnull align 8 dereferenceable(8) %this) unnamed_addr #5 comdat align 2 {
entry:
  %this.addr = alloca ptr, align 8
  store ptr %this, ptr %this.addr, align 8
  %this1 = load ptr, ptr %this.addr, align 8
  call void @_ZN7datalog17tr_infrastructureINS_15relation_traitsEE7base_fnD2Ev(ptr noundef nonnull align 8 dereferenceable(8) %this1) #3
  ret void
}

; Function Attrs: mustprogress nounwind uwtable
define linkonce_odr hidden void @_ZN7obj_refI9func_decl11ast_managerEC2ERS1_(ptr noundef nonnull align 8 dereferenceable(16) %this, ptr noundef nonnull align 8 dereferenceable(976) %m) unnamed_addr #5 comdat align 2 {
entry:
  %this.addr = alloca ptr, align 8
  %m.addr = alloca ptr, align 8
  store ptr %this, ptr %this.addr, align 8
  store ptr %m, ptr %m.addr, align 8
  %this1 = load ptr, ptr %this.addr, align 8
  %m_obj = getelementptr inbounds %class.obj_ref.0, ptr %this1, i32 0, i32 0
  store ptr null, ptr %m_obj, align 8
  %m_manager = getelementptr inbounds %class.obj_ref.0, ptr %this1, i32 0, i32 1
  %0 = load ptr, ptr %m.addr, align 8
  store ptr %0, ptr %m_manager, align 8
  ret void
}

; Function Attrs: mustprogress uwtable
define linkonce_odr hidden void @_ZN7obj_refI3app11ast_managerEC2EPS0_RS1_(ptr noundef nonnull align 8 dereferenceable(16) %this, ptr noundef %n, ptr noundef nonnull align 8 dereferenceable(976) %m) unnamed_addr #4 comdat align 2 {
entry:
  %this.addr = alloca ptr, align 8
  %n.addr = alloca ptr, align 8
  %m.addr = alloca ptr, align 8
  store ptr %this, ptr %this.addr, align 8
  store ptr %n, ptr %n.addr, align 8
  store ptr %m, ptr %m.addr, align 8
  %this1 = load ptr, ptr %this.addr, align 8
  %m_obj = getelementptr inbounds %class.obj_ref.47, ptr %this1, i32 0, i32 0
  %0 = load ptr, ptr %n.addr, align 8
  store ptr %0, ptr %m_obj, align 8
  %m_manager = getelementptr inbounds %class.obj_ref.47, ptr %this1, i32 0, i32 1
  %1 = load ptr, ptr %m.addr, align 8
  store ptr %1, ptr %m_manager, align 8
  call void @_ZN7obj_refI3app11ast_managerE7inc_refEv(ptr noundef nonnull align 8 dereferenceable(16) %this1)
  ret void
}

; Function Attrs: mustprogress uwtable
define linkonce_odr hidden noundef nonnull align 8 dereferenceable(976) ptr @_ZNK7datalog17tr_infrastructureINS_15relation_traitsEE13plugin_object15get_ast_managerEv(ptr noundef nonnull align 8 dereferenceable(32) %this) #4 comdat align 2 {
entry:
  %this.addr = alloca ptr, align 8
  store ptr %this, ptr %this.addr, align 8
  %this1 = load ptr, ptr %this.addr, align 8
  %m_manager = getelementptr inbounds %"class.datalog::tr_infrastructure<datalog::relation_traits>::plugin_object", ptr %this1, i32 0, i32 3
  %0 = load ptr, ptr %m_manager, align 8
  %call = call noundef nonnull align 8 dereferenceable(976) ptr @_ZN7datalog32get_ast_manager_from_rel_managerERKNS_16relation_managerE(ptr noundef nonnull align 1 %0)
  ret ptr %call
}

; Function Attrs: mustprogress nounwind uwtable
define linkonce_odr hidden void @_ZN7datalog17tr_infrastructureINS_15relation_traitsEE10mutator_fnC2Ev(ptr noundef nonnull align 8 dereferenceable(8) %this) unnamed_addr #5 comdat align 2 {
entry:
  %this.addr = alloca ptr, align 8
  store ptr %this, ptr %this.addr, align 8
  %this1 = load ptr, ptr %this.addr, align 8
  call void @_ZN7datalog17tr_infrastructureINS_15relation_traitsEE7base_fnC2Ev(ptr noundef nonnull align 8 dereferenceable(8) %this1) #3
  store ptr getelementptr inbounds ({ [7 x ptr] }, ptr @_ZTVN7datalog17tr_infrastructureINS_15relation_traitsEE10mutator_fnE, i32 0, i32 0, i32 2), ptr %this1, align 8
  ret void
}

; Function Attrs: mustprogress nounwind uwtable
define linkonce_odr hidden noundef ptr @_ZNK7obj_refI4expr11ast_managerEptEv(ptr noundef nonnull align 8 dereferenceable(16) %this) #5 comdat align 2 {
entry:
  %this.addr = alloca ptr, align 8
  store ptr %this, ptr %this.addr, align 8
  %this1 = load ptr, ptr %this.addr, align 8
  %m_obj = getelementptr inbounds %class.obj_ref, ptr %this1, i32 0, i32 0
  %0 = load ptr, ptr %m_obj, align 8
  ret ptr %0
}

; Function Attrs: mustprogress nounwind uwtable
define linkonce_odr hidden noundef nonnull align 8 dereferenceable(36) ptr @_ZNK7datalog17tr_infrastructureINS_15relation_traitsEE13base_ancestor10get_pluginEv(ptr noundef nonnull align 8 dereferenceable(28) %this) #5 comdat align 2 {
entry:
  %this.addr = alloca ptr, align 8
  store ptr %this, ptr %this.addr, align 8
  %this1 = load ptr, ptr %this.addr, align 8
  %m_plugin = getelementptr inbounds %"class.datalog::tr_infrastructure<datalog::relation_traits>::base_ancestor", ptr %this1, i32 0, i32 1
  %0 = load ptr, ptr %m_plugin, align 8
  ret ptr %0
}

; Function Attrs: mustprogress uwtable
define linkonce_odr hidden void @_ZN7datalog24external_relation_plugin21filter_interpreted_fnC2ERS0_P4sortP3app(ptr noundef nonnull align 8 dereferenceable(48) %this, ptr noundef nonnull align 8 dereferenceable(48) %p, ptr noundef %relation_sort, ptr noundef %condition) unnamed_addr #4 comdat align 2 personality ptr @__gxx_personality_v0 {
entry:
  %this.addr = alloca ptr, align 8
  %p.addr = alloca ptr, align 8
  %relation_sort.addr = alloca ptr, align 8
  %condition.addr = alloca ptr, align 8
  %exn.slot = alloca ptr, align 8
  %ehselector.slot = alloca i32, align 4
  store ptr %this, ptr %this.addr, align 8
  store ptr %p, ptr %p.addr, align 8
  store ptr %relation_sort, ptr %relation_sort.addr, align 8
  store ptr %condition, ptr %condition.addr, align 8
  %this1 = load ptr, ptr %this.addr, align 8
  call void @_ZN7datalog17tr_infrastructureINS_15relation_traitsEE10mutator_fnC2Ev(ptr noundef nonnull align 8 dereferenceable(8) %this1) #3
  store ptr getelementptr inbounds ({ [7 x ptr] }, ptr @_ZTVN7datalog24external_relation_plugin21filter_interpreted_fnE, i32 0, i32 0, i32 2), ptr %this1, align 8
  %m_plugin = getelementptr inbounds %"class.datalog::external_relation_plugin::filter_interpreted_fn", ptr %this1, i32 0, i32 1
  %0 = load ptr, ptr %p.addr, align 8
  store ptr %0, ptr %m_plugin, align 8
  %m_condition = getelementptr inbounds %"class.datalog::external_relation_plugin::filter_interpreted_fn", ptr %this1, i32 0, i32 2
  %1 = load ptr, ptr %condition.addr, align 8
  %2 = load ptr, ptr %p.addr, align 8
  %call = invoke noundef nonnull align 8 dereferenceable(976) ptr @_ZNK7datalog17tr_infrastructureINS_15relation_traitsEE13plugin_object15get_ast_managerEv(ptr noundef nonnull align 8 dereferenceable(32) %2)
          to label %invoke.cont unwind label %lpad

invoke.cont:                                      ; preds = %entry
  invoke void @_ZN7obj_refI3app11ast_managerEC2EPS0_RS1_(ptr noundef nonnull align 8 dereferenceable(16) %m_condition, ptr noundef %1, ptr noundef nonnull align 8 dereferenceable(976) %call)
          to label %invoke.cont2 unwind label %lpad

invoke.cont2:                                     ; preds = %invoke.cont
  %m_filter_fn = getelementptr inbounds %"class.datalog::external_relation_plugin::filter_interpreted_fn", ptr %this1, i32 0, i32 3
  %3 = load ptr, ptr %p.addr, align 8
  %call5 = invoke noundef nonnull align 8 dereferenceable(976) ptr @_ZNK7datalog17tr_infrastructureINS_15relation_traitsEE13plugin_object15get_ast_managerEv(ptr noundef nonnull align 8 dereferenceable(32) %3)
          to label %invoke.cont4 unwind label %lpad3

invoke.cont4:                                     ; preds = %invoke.cont2
  invoke void @_ZN7obj_refI9func_decl11ast_managerEC2ERS1_(ptr noundef nonnull align 8 dereferenceable(16) %m_filter_fn, ptr noundef nonnull align 8 dereferenceable(976) %call5)
          to label %invoke.cont6 unwind label %lpad3

invoke.cont6:                                     ; preds = %invoke.cont4
  %4 = load ptr, ptr %p.addr, align 8
  %5 = load ptr, ptr %relation_sort.addr, align 8
  %6 = load ptr, ptr %condition.addr, align 8
  %m_filter_fn7 = getelementptr inbounds %"class.datalog::external_relation_plugin::filter_interpreted_fn", ptr %this1, i32 0, i32 3
  invoke void @_ZN7datalog24external_relation_plugin12mk_filter_fnEP4sortP3appR7obj_refI9func_decl11ast_managerE(ptr noundef nonnull align 8 dereferenceable(48) %4, ptr noundef %5, ptr noundef %6, ptr noundef nonnull align 8 dereferenceable(16) %m_filter_fn7)
          to label %invoke.cont9 unwind label %lpad8

invoke.cont9:                                     ; preds = %invoke.cont6
  ret void

lpad:                                             ; preds = %invoke.cont, %entry
  %7 = landingpad { ptr, i32 }
          cleanup
  %8 = extractvalue { ptr, i32 } %7, 0
  store ptr %8, ptr %exn.slot, align 8
  %9 = extractvalue { ptr, i32 } %7, 1
  store i32 %9, ptr %ehselector.slot, align 4
  br label %ehcleanup10

lpad3:                                            ; preds = %invoke.cont4, %invoke.cont2
  %10 = landingpad { ptr, i32 }
          cleanup
  %11 = extractvalue { ptr, i32 } %10, 0
  store ptr %11, ptr %exn.slot, align 8
  %12 = extractvalue { ptr, i32 } %10, 1
  store i32 %12, ptr %ehselector.slot, align 4
  br label %ehcleanup

lpad8:                                            ; preds = %invoke.cont6
  %13 = landingpad { ptr, i32 }
          cleanup
  %14 = extractvalue { ptr, i32 } %13, 0
  store ptr %14, ptr %exn.slot, align 8
  %15 = extractvalue { ptr, i32 } %13, 1
  store i32 %15, ptr %ehselector.slot, align 4
  call void @_ZN7obj_refI9func_decl11ast_managerED2Ev(ptr noundef nonnull align 8 dereferenceable(16) %m_filter_fn) #3
  br label %ehcleanup

ehcleanup:                                        ; preds = %lpad8, %lpad3
  call void @_ZN7obj_refI3app11ast_managerED2Ev(ptr noundef nonnull align 8 dereferenceable(16) %m_condition) #3
  br label %ehcleanup10

ehcleanup10:                                      ; preds = %ehcleanup, %lpad
  call void @_ZN7datalog17tr_infrastructureINS_15relation_traitsEE10mutator_fnD2Ev(ptr noundef nonnull align 8 dereferenceable(8) %this1) #3
  br label %eh.resume

eh.resume:                                        ; preds = %ehcleanup10
  %exn = load ptr, ptr %exn.slot, align 8
  %sel = load i32, ptr %ehselector.slot, align 4
  %lpad.val = insertvalue { ptr, i32 } poison, ptr %exn, 0
  %lpad.val11 = insertvalue { ptr, i32 } %lpad.val, i32 %sel, 1
  resume { ptr, i32 } %lpad.val11
}

; Function Attrs: mustprogress uwtable
define linkonce_odr hidden noundef ptr @_ZNK7datalog17external_relation8get_sortEv(ptr noundef nonnull align 8 dereferenceable(96) %this) #4 comdat align 2 {
entry:
  %this.addr = alloca ptr, align 8
  store ptr %this, ptr %this.addr, align 8
  %this1 = load ptr, ptr %this.addr, align 8
  %m_rel = getelementptr inbounds %"class.datalog::external_relation", ptr %this1, i32 0, i32 1
  %call = call noundef ptr @_ZNK7obj_refI4expr11ast_managerEptEv(ptr noundef nonnull align 8 dereferenceable(16) %m_rel)
  %call2 = call noundef ptr @_ZNK4expr8get_sortEv(ptr noundef nonnull align 4 dereferenceable(16) %call)
  ret ptr %call2
}

; Function Attrs: mustprogress uwtable
define hidden noundef nonnull align 8 dereferenceable(96) ptr @_ZN7datalog24external_relation_plugin3getERKNS_13relation_baseE(ptr noundef nonnull align 8 dereferenceable(28) %r) #4 align 2 {
entry:
  %r.addr = alloca ptr, align 8
  store ptr %r, ptr %r.addr, align 8
  %0 = load ptr, ptr %r.addr, align 8
  %1 = call ptr @__dynamic_cast(ptr %0, ptr @_ZTIN7datalog13relation_baseE, ptr @_ZTIN7datalog17external_relationE, i64 0) #3
  %2 = icmp eq ptr %1, null
  br i1 %2, label %dynamic_cast.bad_cast, label %dynamic_cast.end

dynamic_cast.bad_cast:                            ; preds = %entry
  call void @__cxa_bad_cast() #17
  unreachable

dynamic_cast.end:                                 ; preds = %entry
  ret ptr %1
}

; Function Attrs: mustprogress nounwind uwtable
define linkonce_odr hidden noundef zeroext i1 @_ZNK7datalog17tr_infrastructureINS_15relation_traitsEE13plugin_object10check_kindERKNS_13relation_baseE(ptr noundef nonnull align 8 dereferenceable(32) %this, ptr noundef nonnull align 8 dereferenceable(28) %r) #5 comdat align 2 {
entry:
  %this.addr = alloca ptr, align 8
  %r.addr = alloca ptr, align 8
  store ptr %this, ptr %this.addr, align 8
  store ptr %r, ptr %r.addr, align 8
  %this1 = load ptr, ptr %this.addr, align 8
  %0 = load ptr, ptr %r.addr, align 8
  %call = call noundef nonnull align 8 dereferenceable(36) ptr @_ZNK7datalog17tr_infrastructureINS_15relation_traitsEE13base_ancestor10get_pluginEv(ptr noundef nonnull align 8 dereferenceable(28) %0)
  %cmp = icmp eq ptr %call, %this1
  ret i1 %cmp
}

; Function Attrs: mustprogress uwtable
define hidden noundef ptr @_ZN7datalog24external_relation_plugin24mk_filter_interpreted_fnERKNS_13relation_baseEP3app(ptr noundef nonnull align 8 dereferenceable(48) %this, ptr noundef nonnull align 8 dereferenceable(28) %r, ptr noundef %condition) unnamed_addr #4 align 2 {
entry:
  %retval = alloca ptr, align 8
  %this.addr = alloca ptr, align 8
  %r.addr = alloca ptr, align 8
  %condition.addr = alloca ptr, align 8
  store ptr %this, ptr %this.addr, align 8
  store ptr %r, ptr %r.addr, align 8
  store ptr %condition, ptr %condition.addr, align 8
  %this1 = load ptr, ptr %this.addr, align 8
  %0 = load ptr, ptr %r.addr, align 8
  %call = call noundef zeroext i1 @_ZNK7datalog17tr_infrastructureINS_15relation_traitsEE13plugin_object10check_kindERKNS_13relation_baseE(ptr noundef nonnull align 8 dereferenceable(32) %this1, ptr noundef nonnull align 8 dereferenceable(28) %0)
  br i1 %call, label %if.end, label %if.then

if.then:                                          ; preds = %entry
  store ptr null, ptr %retval, align 8
  br label %return

if.end:                                           ; preds = %entry
  %call2 = call noalias noundef ptr @_ZN6memory8allocateEm(i64 noundef 48)
  %1 = load ptr, ptr %r.addr, align 8
  %call3 = call noundef nonnull align 8 dereferenceable(96) ptr @_ZN7datalog24external_relation_plugin3getERKNS_13relation_baseE(ptr noundef nonnull align 8 dereferenceable(28) %1)
  %call4 = call noundef ptr @_ZNK7datalog17external_relation8get_sortEv(ptr noundef nonnull align 8 dereferenceable(96) %call3)
  %2 = load ptr, ptr %condition.addr, align 8
  call void @_ZN7datalog24external_relation_plugin21filter_interpreted_fnC2ERS0_P4sortP3app(ptr noundef nonnull align 8 dereferenceable(48) %call2, ptr noundef nonnull align 8 dereferenceable(48) %this1, ptr noundef %call4, ptr noundef %2)
  store ptr %call2, ptr %retval, align 8
  br label %return

return:                                           ; preds = %if.end, %if.then
  %3 = load ptr, ptr %retval, align 8
  ret ptr %3
}