; Function Attrs: mustprogress uwtable
define hidden noundef ptr @_ZN7datalog24external_relation_plugin24mk_filter_interpreted_fnERKNS_13relation_baseEP3app(ptr noundef nonnull align 8 dereferenceable(48) %this, ptr noundef nonnull readonly align 8 dereferenceable(28) %r, ptr noundef %condition) unnamed_addr #3 align 2 personality ptr @__gxx_personality_v0 {
entry:
  %m_plugin.i.i = getelementptr inbounds i8, ptr %r, i64 8
  %0 = load ptr, ptr %m_plugin.i.i, align 8
  %cmp.i = icmp eq ptr %0, %this
  br i1 %cmp.i, label %if.end, label %return

if.end:                                           ; preds = %entry
  %call2 = tail call noalias noundef ptr @_ZN6memory8allocateEm(i64 noundef 48)
  %1 = tail call ptr @__dynamic_cast(ptr nonnull %r, ptr nonnull @_ZTIN7datalog13relation_baseE, ptr nonnull @_ZTIN7datalog17external_relationE, i64 0) #17
  %2 = icmp eq ptr %1, null
  br i1 %2, label %dynamic_cast.bad_cast.i, label %_ZN7datalog24external_relation_plugin3getERKNS_13relation_baseE.exit

dynamic_cast.bad_cast.i:                          ; preds = %if.end
  tail call void @__cxa_bad_cast() #20
  unreachable

_ZN7datalog24external_relation_plugin3getERKNS_13relation_baseE.exit: ; preds = %if.end
  %m_rel.i = getelementptr inbounds i8, ptr %1, i64 32
  %3 = load ptr, ptr %m_rel.i, align 8
  %call2.i = tail call noundef ptr @_ZNK4expr8get_sortEv(ptr noundef nonnull align 4 dereferenceable(16) %3)
  store ptr getelementptr inbounds ({ [7 x ptr] }, ptr @_ZTVN7datalog24external_relation_plugin21filter_interpreted_fnE, i64 0, i32 0, i64 2), ptr %call2, align 8
  %m_plugin.i = getelementptr inbounds i8, ptr %call2, i64 8
  store ptr %this, ptr %m_plugin.i, align 8
  %m_condition.i = getelementptr inbounds i8, ptr %call2, i64 16
  %m_manager.i.i = getelementptr inbounds i8, ptr %this, i64 24
  %4 = load ptr, ptr %m_manager.i.i, align 8
  %call.i7.i = tail call noundef nonnull align 8 dereferenceable(976) ptr @_ZN7datalog32get_ast_manager_from_rel_managerERKNS_16relation_managerE(ptr noundef nonnull align 1 %4)
  store ptr %condition, ptr %m_condition.i, align 8
  %m_manager.i8.i = getelementptr inbounds i8, ptr %call2, i64 24
  store ptr %call.i7.i, ptr %m_manager.i8.i, align 8
  %tobool.not.i.i.i = icmp eq ptr %condition, null
  br i1 %tobool.not.i.i.i, label %invoke.cont2.i, label %_ZN11ast_manager7inc_refEP3ast.exit.i.i.i

_ZN11ast_manager7inc_refEP3ast.exit.i.i.i:        ; preds = %_ZN7datalog24external_relation_plugin3getERKNS_13relation_baseE.exit
  %m_ref_count.i.i.i.i.i = getelementptr inbounds i8, ptr %condition, i64 8
  %5 = load i32, ptr %m_ref_count.i.i.i.i.i, align 4
  %inc.i.i.i.i.i = add i32 %5, 1
  store i32 %inc.i.i.i.i.i, ptr %m_ref_count.i.i.i.i.i, align 4
  br label %invoke.cont2.i

invoke.cont2.i:                                   ; preds = %_ZN11ast_manager7inc_refEP3ast.exit.i.i.i, %_ZN7datalog24external_relation_plugin3getERKNS_13relation_baseE.exit
  %m_filter_fn.i = getelementptr inbounds i8, ptr %call2, i64 32
  %6 = load ptr, ptr %m_manager.i.i, align 8
  %call.i10.i = invoke noundef nonnull align 8 dereferenceable(976) ptr @_ZN7datalog32get_ast_manager_from_rel_managerERKNS_16relation_managerE(ptr noundef nonnull align 1 %6)
          to label %invoke.cont4.i unwind label %lpad3.i

invoke.cont4.i:                                   ; preds = %invoke.cont2.i
  store ptr null, ptr %m_filter_fn.i, align 8
  %m_manager.i12.i = getelementptr inbounds i8, ptr %call2, i64 40
  store ptr %call.i10.i, ptr %m_manager.i12.i, align 8
  invoke void @_ZN7datalog24external_relation_plugin12mk_filter_fnEP4sortP3appR7obj_refI9func_decl11ast_managerE(ptr noundef nonnull align 8 dereferenceable(48) %this, ptr noundef %call2.i, ptr noundef %condition, ptr noundef nonnull align 8 dereferenceable(16) %m_filter_fn.i)
          to label %return unwind label %lpad8.i

lpad3.i:                                          ; preds = %invoke.cont2.i
  %7 = landingpad { ptr, i32 }
          cleanup
  br label %ehcleanup.i

lpad8.i:                                          ; preds = %invoke.cont4.i
  %8 = landingpad { ptr, i32 }
          cleanup
  tail call void @_ZN7obj_refI9func_decl11ast_managerED2Ev(ptr noundef nonnull align 8 dereferenceable(16) %m_filter_fn.i) #17
  br label %ehcleanup.i

ehcleanup.i:                                      ; preds = %lpad8.i, %lpad3.i
  %.pn.i = phi { ptr, i32 } [ %8, %lpad8.i ], [ %7, %lpad3.i ]
  tail call void @_ZN7obj_refI3app11ast_managerED2Ev(ptr noundef nonnull align 8 dereferenceable(16) %m_condition.i) #17
  resume { ptr, i32 } %.pn.i

return:                                           ; preds = %invoke.cont4.i, %entry
  %retval.0 = phi ptr [ null, %entry ], [ %call2, %invoke.cont4.i ]
  ret ptr %retval.0
}